target datalayout = "e-m:e-p270:32:32-p271:32:32-p272:64:64-i64:64-i128:128-f80:128-n8:16:32:64-S128"
target triple = "x86_64-pc-linux-gnu"

%struct.stb_vorbis = type { i32, i32, i32, i32, i32, ptr, i32, ptr, ptr, i32, i32, ptr, ptr, ptr, i32, i8, i32, %struct.ProbedPage, %struct.ProbedPage, %struct.stb_vorbis_alloc, i32, i32, i32, i32, [2 x i32], i32, i32, i32, ptr, i32, [64 x i16], ptr, i32, [64 x i16], ptr, i32, ptr, i32, [64 x %struct.Mode], i32, [16 x ptr], [16 x ptr], [16 x ptr], i32, [16 x ptr], i32, i32, [2 x ptr], [2 x ptr], [2 x ptr], [2 x ptr], [2 x ptr], i32, i32, i32, [255 x i8], i8, i8, i8, i32, i32, i32, i32, i32, i32, i32, i32, i32, i32, i32, [4 x %struct.CRCscan], i32, i32 }
%struct.ProbedPage = type { i32, i32, i32 }
%struct.stb_vorbis_alloc = type { ptr, i32 }
%struct.Mode = type { i8, i8, i16, i16 }
%struct.CRCscan = type { i32, i32, i32, i32, i32 }

; Function Attrs: nounwind uwtable
define ptr @setup_malloc(ptr noundef %0, i32 noundef %1) #0 {
  %3 = alloca ptr, align 8
  %4 = alloca ptr, align 8
  %5 = alloca i32, align 4
  %6 = alloca ptr, align 8
  %7 = alloca i32, align 4
  store ptr %0, ptr %4, align 8, !tbaa !3
  store i32 %1, ptr %5, align 4, !tbaa !8
  %8 = load i32, ptr %5, align 4, !tbaa !8
  %9 = add nsw i32 %8, 7
  %10 = and i32 %9, -8
  store i32 %10, ptr %5, align 4, !tbaa !8
  %11 = load i32, ptr %5, align 4, !tbaa !8
  %12 = load ptr, ptr %4, align 8, !tbaa !3
  %13 = getelementptr inbounds nuw %struct.stb_vorbis, ptr %12, i32 0, i32 2
  %14 = load i32, ptr %13, align 8, !tbaa !22
  %15 = add i32 %14, %11
  store i32 %15, ptr %13, align 8, !tbaa !22
  %16 = load ptr, ptr %4, align 8, !tbaa !3
  %17 = getelementptr inbounds nuw %struct.stb_vorbis, ptr %16, i32 0, i32 19
  %18 = getelementptr inbounds nuw %struct.stb_vorbis_alloc, ptr %17, i32 0, i32 0
  %19 = load ptr, ptr %18, align 8, !tbaa !23
  %20 = icmp ne ptr %19, null
  br i1 %20, label %21, label %49

21:                                               ; preds = %2
  call void @llvm.lifetime.start.p0(i64 8, ptr %6) #11
  %22 = load ptr, ptr %4, align 8, !tbaa !3
  %23 = getelementptr inbounds nuw %struct.stb_vorbis, ptr %22, i32 0, i32 19
  %24 = getelementptr inbounds nuw %struct.stb_vorbis_alloc, ptr %23, i32 0, i32 0
  %25 = load ptr, ptr %24, align 8, !tbaa !23
  %26 = load ptr, ptr %4, align 8, !tbaa !3
  %27 = getelementptr inbounds nuw %struct.stb_vorbis, ptr %26, i32 0, i32 20
  %28 = load i32, ptr %27, align 8, !tbaa !24
  %29 = sext i32 %28 to i64
  %30 = getelementptr inbounds i8, ptr %25, i64 %29
  store ptr %30, ptr %6, align 8, !tbaa !18
  %31 = load ptr, ptr %4, align 8, !tbaa !3
  %32 = getelementptr inbounds nuw %struct.stb_vorbis, ptr %31, i32 0, i32 20
  %33 = load i32, ptr %32, align 8, !tbaa !24
  %34 = load i32, ptr %5, align 4, !tbaa !8
  %35 = add nsw i32 %33, %34
  %36 = load ptr, ptr %4, align 8, !tbaa !3
  %37 = getelementptr inbounds nuw %struct.stb_vorbis, ptr %36, i32 0, i32 21
  %38 = load i32, ptr %37, align 4, !tbaa !25
  %39 = icmp sgt i32 %35, %38
  br i1 %39, label %40, label %41

40:                                               ; preds = %21
  store ptr null, ptr %3, align 8
  store i32 1, ptr %7, align 4
  br label %48

41:                                               ; preds = %21
  %42 = load i32, ptr %5, align 4, !tbaa !8
  %43 = load ptr, ptr %4, align 8, !tbaa !3
  %44 = getelementptr inbounds nuw %struct.stb_vorbis, ptr %43, i32 0, i32 20
  %45 = load i32, ptr %44, align 8, !tbaa !24
  %46 = add nsw i32 %45, %42
  store i32 %46, ptr %44, align 8, !tbaa !24
  %47 = load ptr, ptr %6, align 8, !tbaa !18
  store ptr %47, ptr %3, align 8
  store i32 1, ptr %7, align 4
  br label %48

48:                                               ; preds = %41, %40
  call void @llvm.lifetime.end.p0(i64 8, ptr %6) #11
  br label %59

49:                                               ; preds = %2
  %50 = load i32, ptr %5, align 4, !tbaa !8
  %51 = icmp ne i32 %50, 0
  br i1 %51, label %52, label %56

52:                                               ; preds = %49
  %53 = load i32, ptr %5, align 4, !tbaa !8
  %54 = sext i32 %53 to i64
  %55 = call noalias ptr @malloc(i64 noundef %54) #12
  br label %57

56:                                               ; preds = %49
  br label %57

57:                                               ; preds = %56, %52
  %58 = phi ptr [ %55, %52 ], [ null, %56 ]
  store ptr %58, ptr %3, align 8
  br label %59

59:                                               ; preds = %57, %48
  %60 = load ptr, ptr %3, align 8
  ret ptr %60
}

; Function Attrs: nounwind uwtable
define ptr @vorbis_alloc(ptr noundef %0) #0 {
  %2 = alloca ptr, align 8
  %3 = alloca ptr, align 8
  store ptr %0, ptr %2, align 8, !tbaa !3
  call void @llvm.lifetime.start.p0(i64 8, ptr %3) #11
  %4 = load ptr, ptr %2, align 8, !tbaa !3
  %5 = call ptr @setup_malloc(ptr noundef %4, i32 noundef 1904)
  store ptr %5, ptr %3, align 8, !tbaa !3
  %6 = load ptr, ptr %3, align 8, !tbaa !3
  call void @llvm.lifetime.end.p0(i64 8, ptr %3) #11
  ret ptr %6
}

; Function Attrs: nounwind uwtable
define void @vorbis_init(ptr noundef %0, ptr noundef %1) #0 {
  %3 = alloca ptr, align 8
  %4 = alloca ptr, align 8
  store ptr %0, ptr %3, align 8, !tbaa !3
  store ptr %1, ptr %4, align 8, !tbaa !18
  %5 = load ptr, ptr %3, align 8, !tbaa !3
  call void @llvm.memset.p0.i64(ptr align 8 %5, i8 0, i64 1904, i1 false)
  %6 = load ptr, ptr %4, align 8, !tbaa !18
  %7 = icmp ne ptr %6, null
  br i1 %7, label %8, label %23

8:                                                ; preds = %2
  %9 = load ptr, ptr %3, align 8, !tbaa !3
  %10 = getelementptr inbounds nuw %struct.stb_vorbis, ptr %9, i32 0, i32 19
  %11 = load ptr, ptr %4, align 8, !tbaa !18
  call void @llvm.memcpy.p0.p0.i64(ptr align 8 %10, ptr align 8 %11, i64 16, i1 false), !tbaa.struct !278
  %12 = load ptr, ptr %3, align 8, !tbaa !3
  %13 = getelementptr inbounds nuw %struct.stb_vorbis, ptr %12, i32 0, i32 19
  %14 = getelementptr inbounds nuw %struct.stb_vorbis_alloc, ptr %13, i32 0, i32 1
  %15 = load i32, ptr %14, align 8, !tbaa !279
  %16 = and i32 %15, -8
  store i32 %16, ptr %14, align 8, !tbaa !279
  %17 = load ptr, ptr %3, align 8, !tbaa !3
  %18 = getelementptr inbounds nuw %struct.stb_vorbis, ptr %17, i32 0, i32 19
  %19 = getelementptr inbounds nuw %struct.stb_vorbis_alloc, ptr %18, i32 0, i32 1
  %20 = load i32, ptr %19, align 8, !tbaa !279
  %21 = load ptr, ptr %3, align 8, !tbaa !3
  %22 = getelementptr inbounds nuw %struct.stb_vorbis, ptr %21, i32 0, i32 21
  store i32 %20, ptr %22, align 4, !tbaa !25
  br label %23

23:                                               ; preds = %8, %2
  %24 = load ptr, ptr %3, align 8, !tbaa !3
  %25 = getelementptr inbounds nuw %struct.stb_vorbis, ptr %24, i32 0, i32 22
  store i32 0, ptr %25, align 8, !tbaa !17
  %26 = load ptr, ptr %3, align 8, !tbaa !3
  %27 = getelementptr inbounds nuw %struct.stb_vorbis, ptr %26, i32 0, i32 23
  store i32 0, ptr %27, align 4, !tbaa !10
  %28 = load ptr, ptr %3, align 8, !tbaa !3
  %29 = getelementptr inbounds nuw %struct.stb_vorbis, ptr %28, i32 0, i32 11
  store ptr null, ptr %29, align 8, !tbaa !68
  %30 = load ptr, ptr %3, align 8, !tbaa !3
  %31 = getelementptr inbounds nuw %struct.stb_vorbis, ptr %30, i32 0, i32 28
  store ptr null, ptr %31, align 8, !tbaa !118
  %32 = load ptr, ptr %3, align 8, !tbaa !3
  %33 = getelementptr inbounds nuw %struct.stb_vorbis, ptr %32, i32 0, i32 69
  store i32 -1, ptr %33, align 8, !tbaa !280
  %34 = load ptr, ptr %3, align 8, !tbaa !3
  %35 = getelementptr inbounds nuw %struct.stb_vorbis, ptr %34, i32 0, i32 10
  store i32 0, ptr %35, align 4, !tbaa !277
  %36 = load ptr, ptr %3, align 8, !tbaa !3
  %37 = getelementptr inbounds nuw %struct.stb_vorbis, ptr %36, i32 0, i32 8
  store ptr null, ptr %37, align 8, !tbaa !70
  ret void
}

; Function Attrs: nounwind uwtable
define ptr @stb_vorbis_open_pushdata(ptr noundef %0, i32 noundef %1, ptr noundef %2, ptr noundef %3, ptr noundef %4) #0 {
  %6 = alloca ptr, align 8
  %7 = alloca ptr, align 8
  %8 = alloca i32, align 4
  %9 = alloca ptr, align 8
  %10 = alloca ptr, align 8
  %11 = alloca ptr, align 8
  %12 = alloca ptr, align 8
  %13 = alloca %struct.stb_vorbis, align 8
  %14 = alloca i32, align 4
  store ptr %0, ptr %7, align 8, !tbaa !19
  store i32 %1, ptr %8, align 4, !tbaa !8
  store ptr %2, ptr %9, align 8, !tbaa !33
  store ptr %3, ptr %10, align 8, !tbaa !33
  store ptr %4, ptr %11, align 8, !tbaa !18
  call void @llvm.lifetime.start.p0(i64 8, ptr %12) #11
  call void @llvm.lifetime.start.p0(i64 1904, ptr %13) #11
  %15 = load ptr, ptr %11, align 8, !tbaa !18
  call void @vorbis_init(ptr noundef %13, ptr noundef %15)
  %16 = load ptr, ptr %7, align 8, !tbaa !19
  %17 = getelementptr inbounds nuw %struct.stb_vorbis, ptr %13, i32 0, i32 11
  store ptr %16, ptr %17, align 8, !tbaa !68
  %18 = load ptr, ptr %7, align 8, !tbaa !19
  %19 = load i32, ptr %8, align 4, !tbaa !8
  %20 = sext i32 %19 to i64
  %21 = getelementptr inbounds i8, ptr %18, i64 %20
  %22 = getelementptr inbounds nuw %struct.stb_vorbis, ptr %13, i32 0, i32 13
  store ptr %21, ptr %22, align 8, !tbaa !69
  %23 = getelementptr inbounds nuw %struct.stb_vorbis, ptr %13, i32 0, i32 15
  store i8 1, ptr %23, align 4, !tbaa !73
  %24 = call i32 @start_decoder(ptr noundef %13)
  %25 = icmp ne i32 %24, 0
  br i1 %25, label %37, label %26

26:                                               ; preds = %5
  %27 = getelementptr inbounds nuw %struct.stb_vorbis, ptr %13, i32 0, i32 22
  %28 = load i32, ptr %27, align 8, !tbaa !17
  %29 = icmp ne i32 %28, 0
  br i1 %29, label %30, label %32

30:                                               ; preds = %26
  %31 = load ptr, ptr %10, align 8, !tbaa !33
  store i32 1, ptr %31, align 4, !tbaa !8
  br label %36

32:                                               ; preds = %26
  %33 = getelementptr inbounds nuw %struct.stb_vorbis, ptr %13, i32 0, i32 23
  %34 = load i32, ptr %33, align 4, !tbaa !10
  %35 = load ptr, ptr %10, align 8, !tbaa !33
  store i32 %34, ptr %35, align 4, !tbaa !8
  br label %36

36:                                               ; preds = %32, %30
  call void @vorbis_deinit(ptr noundef %13)
  store ptr null, ptr %6, align 8
  store i32 1, ptr %14, align 4
  br label %55

37:                                               ; preds = %5
  %38 = call ptr @vorbis_alloc(ptr noundef %13)
  store ptr %38, ptr %12, align 8, !tbaa !3
  %39 = load ptr, ptr %12, align 8, !tbaa !3
  %40 = icmp ne ptr %39, null
  br i1 %40, label %41, label %54

41:                                               ; preds = %37
  %42 = load ptr, ptr %12, align 8, !tbaa !3
  call void @llvm.memcpy.p0.p0.i64(ptr align 8 %42, ptr align 8 %13, i64 1904, i1 false), !tbaa.struct !311
  %43 = load ptr, ptr %12, align 8, !tbaa !3
  %44 = getelementptr inbounds nuw %struct.stb_vorbis, ptr %43, i32 0, i32 11
  %45 = load ptr, ptr %44, align 8, !tbaa !68
  %46 = load ptr, ptr %7, align 8, !tbaa !19
  %47 = ptrtoint ptr %45 to i64
  %48 = ptrtoint ptr %46 to i64
  %49 = sub i64 %47, %48
  %50 = trunc i64 %49 to i32
  %51 = load ptr, ptr %9, align 8, !tbaa !33
  store i32 %50, ptr %51, align 4, !tbaa !8
  %52 = load ptr, ptr %10, align 8, !tbaa !33
  store i32 0, ptr %52, align 4, !tbaa !8
  %53 = load ptr, ptr %12, align 8, !tbaa !3
  store ptr %53, ptr %6, align 8
  store i32 1, ptr %14, align 4
  br label %55

54:                                               ; preds = %37
  call void @vorbis_deinit(ptr noundef %13)
  store ptr null, ptr %6, align 8
  store i32 1, ptr %14, align 4
  br label %55

55:                                               ; preds = %54, %41, %36
  call void @llvm.lifetime.end.p0(i64 1904, ptr %13) #11
  call void @llvm.lifetime.end.p0(i64 8, ptr %12) #11
  %56 = load ptr, ptr %6, align 8
  ret ptr %56
}