; Function Attrs: nounwind uwtable
define ptr @stb_vorbis_open_pushdata(ptr noundef %0, i32 noundef %1, ptr noundef writeonly captures(none) %2, ptr noundef writeonly captures(none) %3, ptr noundef readonly captures(address_is_null) %4) local_unnamed_addr #29 {
  %6 = alloca %struct.stb_vorbis, align 8
  call void @llvm.lifetime.start.p0(i64 1904, ptr nonnull %6) #35
  call void @llvm.memset.p0.i64(ptr noundef nonnull align 8 dereferenceable(1904) %6, i8 0, i64 1904, i1 false)
  %.not.i = icmp eq ptr %4, null
  br i1 %.not.i, label %vorbis_init.exit, label %7

7:                                                ; preds = %5
  %8 = getelementptr inbounds nuw i8, ptr %6, i64 128
  call void @llvm.memcpy.p0.p0.i64(ptr noundef nonnull align 8 dereferenceable(16) %8, ptr noundef nonnull readonly align 8 dereferenceable(16) %4, i64 16, i1 false), !tbaa.struct !267
  %9 = getelementptr inbounds nuw i8, ptr %6, i64 136
  %10 = load i32, ptr %9, align 8, !tbaa !268
  %11 = and i32 %10, -8
  store i32 %11, ptr %9, align 8, !tbaa !268
  %12 = getelementptr inbounds nuw i8, ptr %6, i64 148
  store i32 %11, ptr %12, align 4, !tbaa !19
  br label %vorbis_init.exit

vorbis_init.exit:                                 ; preds = %5, %7
  %13 = getelementptr inbounds nuw i8, ptr %6, i64 152
  store i32 0, ptr %13, align 8, !tbaa !61
  %14 = getelementptr inbounds nuw i8, ptr %6, i64 156
  store i32 0, ptr %14, align 4, !tbaa !200
  %15 = getelementptr inbounds nuw i8, ptr %6, i64 64
  %16 = getelementptr inbounds nuw i8, ptr %6, i64 184
  store ptr null, ptr %16, align 8, !tbaa !106
  %17 = getelementptr inbounds nuw i8, ptr %6, i64 1808
  store i32 -1, ptr %17, align 8, !tbaa !269
  %18 = getelementptr inbounds nuw i8, ptr %6, i64 60
  store i32 0, ptr %18, align 4, !tbaa !266
  %19 = getelementptr inbounds nuw i8, ptr %6, i64 48
  store ptr null, ptr %19, align 8, !tbaa !62
  store ptr %0, ptr %15, align 8, !tbaa !59
  %20 = sext i32 %1 to i64
  %21 = getelementptr inbounds i8, ptr %0, i64 %20
  %22 = getelementptr inbounds nuw i8, ptr %6, i64 80
  store ptr %21, ptr %22, align 8, !tbaa !60
  %23 = getelementptr inbounds nuw i8, ptr %6, i64 92
  store i8 1, ptr %23, align 4, !tbaa !63
  %24 = call i32 @start_decoder(ptr noundef nonnull %6)
  %.not = icmp eq i32 %24, 0
  br i1 %.not, label %25, label %28

25:                                               ; preds = %vorbis_init.exit
  %26 = load i32, ptr %13, align 8, !tbaa !61
  %.not14 = icmp eq i32 %26, 0
  %27 = load i32, ptr %14, align 4
  %storemerge = select i1 %.not14, i32 %27, i32 1
  store i32 %storemerge, ptr %3, align 4, !tbaa !21
  call void @vorbis_deinit(ptr noundef nonnull %6)
  br label %53

28:                                               ; preds = %vorbis_init.exit
  %29 = getelementptr inbounds nuw i8, ptr %6, i64 8
  %30 = load i32, ptr %29, align 8, !tbaa !9
  %31 = add i32 %30, 1904
  store i32 %31, ptr %29, align 8, !tbaa !9
  %32 = getelementptr inbounds nuw i8, ptr %6, i64 128
  %33 = load ptr, ptr %32, align 8, !tbaa !17
  %.not.i.i = icmp eq ptr %33, null
  br i1 %.not.i.i, label %44, label %34

34:                                               ; preds = %28
  %35 = getelementptr inbounds nuw i8, ptr %6, i64 144
  %36 = load i32, ptr %35, align 8, !tbaa !18
  %37 = add nsw i32 %36, 1904
  %38 = getelementptr inbounds nuw i8, ptr %6, i64 148
  %39 = load i32, ptr %38, align 4, !tbaa !19
  %40 = icmp sgt i32 %37, %39
  br i1 %40, label %vorbis_alloc.exit.thread, label %41

41:                                               ; preds = %34
  %42 = sext i32 %36 to i64
  %43 = getelementptr inbounds i8, ptr %33, i64 %42
  store i32 %37, ptr %35, align 8, !tbaa !18
  br label %vorbis_alloc.exit

44:                                               ; preds = %28
  %45 = call noalias dereferenceable_or_null(1904) ptr @malloc(i64 noundef 1904) #34
  br label %vorbis_alloc.exit

vorbis_alloc.exit:                                ; preds = %41, %44
  %.1.i.i = phi ptr [ %43, %41 ], [ %45, %44 ]
  %.not15 = icmp eq ptr %.1.i.i, null
  br i1 %.not15, label %vorbis_alloc.exit.thread, label %46

46:                                               ; preds = %vorbis_alloc.exit
  call void @llvm.memcpy.p0.p0.i64(ptr noundef nonnull align 8 dereferenceable(1904) %.1.i.i, ptr noundef nonnull align 8 dereferenceable(1904) %6, i64 1904, i1 false), !tbaa.struct !300
  %47 = getelementptr inbounds nuw i8, ptr %.1.i.i, i64 64
  %48 = load ptr, ptr %47, align 8, !tbaa !59
  %49 = ptrtoint ptr %48 to i64
  %50 = ptrtoint ptr %0 to i64
  %51 = sub i64 %49, %50
  %52 = trunc i64 %51 to i32
  store i32 %52, ptr %2, align 4, !tbaa !21
  store i32 0, ptr %3, align 4, !tbaa !21
  br label %53

vorbis_alloc.exit.thread:                         ; preds = %34, %vorbis_alloc.exit
  call void @vorbis_deinit(ptr noundef nonnull %6)
  br label %53

53:                                               ; preds = %vorbis_alloc.exit.thread, %46, %25
  %.0 = phi ptr [ %.1.i.i, %46 ], [ null, %vorbis_alloc.exit.thread ], [ null, %25 ]
  call void @llvm.lifetime.end.p0(i64 1904, ptr nonnull %6) #35
  ret ptr %.0
}